target datalayout = "e-m:e-p270:32:32-p271:32:32-p272:64:64-i64:64-i128:128-f80:128-n8:16:32:64-S128"
target triple = "x86_64-pc-linux-gnu"

%"struct.Stockfish::StateInfo" = type { i64, i64, [2 x i32], i32, i32, i32, i32, i64, i64, ptr, [2 x i64], [2 x i64], [8 x i64], i32, i32, [24 x i8], %"struct.Stockfish::Eval::NNUE::Accumulator", %"struct.Stockfish::Eval::NNUE::Accumulator.23", %"struct.Stockfish::DirtyPiece", [24 x i8] }
%"struct.Stockfish::Eval::NNUE::Accumulator" = type { [2 x [2560 x i16]], [2 x [8 x i32]], [2 x i8], [2 x i8], [60 x i8] }
%"struct.Stockfish::Eval::NNUE::Accumulator.23" = type { [2 x [128 x i16]], [2 x [8 x i32]], [2 x i8], [2 x i8], [60 x i8] }
%"struct.Stockfish::DirtyPiece" = type { i32, [3 x i32], [3 x i32], [3 x i32] }
%"struct.Stockfish::MoveList" = type { [256 x %"struct.Stockfish::ExtMove"], ptr }
%"struct.Stockfish::ExtMove" = type { %"class.Stockfish::Move", i32 }
%"class.Stockfish::Move" = type { i16 }
%"class.Stockfish::Position" = type <{ [64 x i32], [8 x i64], [2 x i64], [16 x i32], [64 x i32], [16 x i32], [16 x i64], ptr, i32, i32, i8, [7 x i8] }>

; Function Attrs: mustprogress nounwind uwtable
define linkonce_odr dso_local noundef i32 @_ZNK9Stockfish8Position8piece_onENS_6SquareE(ptr noundef nonnull align 8 dereferenceable(865) %0, i32 noundef %1) #4 comdat align 2 {
  %3 = alloca ptr, align 8
  %4 = alloca i32, align 4
  store ptr %0, ptr %3, align 8
  store i32 %1, ptr %4, align 4
  %5 = load ptr, ptr %3, align 8
  %6 = getelementptr inbounds %"class.Stockfish::Position", ptr %5, i32 0, i32 0
  %7 = load i32, ptr %4, align 4
  %8 = sext i32 %7 to i64
  %9 = getelementptr inbounds [64 x i32], ptr %6, i64 0, i64 %8
  %10 = load i32, ptr %9, align 4
  ret i32 %10
}

; Function Attrs: mustprogress nounwind uwtable
define linkonce_odr dso_local noundef i32 @_ZNK9Stockfish4Move7type_ofEv(ptr noundef nonnull align 2 dereferenceable(2) %0) #4 comdat align 2 {
  %2 = alloca ptr, align 8
  store ptr %0, ptr %2, align 8
  %3 = load ptr, ptr %2, align 8
  %4 = getelementptr inbounds %"class.Stockfish::Move", ptr %3, i32 0, i32 0
  %5 = load i16, ptr %4, align 2
  %6 = zext i16 %5 to i32
  %7 = and i32 %6, 49152
  ret i32 %7
}

; Function Attrs: mustprogress nounwind uwtable
define linkonce_odr dso_local noundef zeroext i1 @_ZNK9Stockfish8Position5emptyENS_6SquareE(ptr noundef nonnull align 8 dereferenceable(865) %0, i32 noundef %1) #4 comdat align 2 {
  %3 = alloca ptr, align 8
  %4 = alloca i32, align 4
  store ptr %0, ptr %3, align 8
  store i32 %1, ptr %4, align 4
  %5 = load ptr, ptr %3, align 8
  %6 = load i32, ptr %4, align 4
  %7 = call noundef i32 @_ZNK9Stockfish8Position8piece_onENS_6SquareE(ptr noundef nonnull align 8 dereferenceable(865) %5, i32 noundef %6)
  %8 = icmp eq i32 %7, 0
  ret i1 %8
}

; Function Attrs: mustprogress nounwind uwtable
define linkonce_odr dso_local noundef i32 @_ZNK9Stockfish4Move5to_sqEv(ptr noundef nonnull align 2 dereferenceable(2) %0) #4 comdat align 2 {
  %2 = alloca ptr, align 8
  store ptr %0, ptr %2, align 8
  %3 = load ptr, ptr %2, align 8
  %4 = getelementptr inbounds %"class.Stockfish::Move", ptr %3, i32 0, i32 0
  %5 = load i16, ptr %4, align 2
  %6 = zext i16 %5 to i32
  %7 = and i32 %6, 63
  ret i32 %7
}

; Function Attrs: mustprogress nounwind uwtable
define internal noundef i32 @_ZN9Stockfish12_GLOBAL__N_1ngENS_10Tablebases8WDLScoreE(i32 noundef %0) #4 {
  %2 = alloca i32, align 4
  store i32 %0, ptr %2, align 4
  %3 = load i32, ptr %2, align 4
  %4 = sub nsw i32 0, %3
  ret i32 %4
}

; Function Attrs: mustprogress nounwind uwtable
define linkonce_odr dso_local void @_ZN9Stockfish8Position7do_moveENS_4MoveERNS_9StateInfoE(ptr noundef nonnull align 8 dereferenceable(865) %0, i16 %1, ptr noundef nonnull align 64 dereferenceable(11264) %2) #4 comdat align 2 {
  %4 = alloca %"class.Stockfish::Move", align 2
  %5 = alloca ptr, align 8
  %6 = alloca ptr, align 8
  %7 = alloca %"class.Stockfish::Move", align 2
  %8 = alloca %"class.Stockfish::Move", align 2
  %9 = getelementptr inbounds %"class.Stockfish::Move", ptr %4, i32 0, i32 0
  store i16 %1, ptr %9, align 2
  store ptr %0, ptr %5, align 8
  store ptr %2, ptr %6, align 8
  %10 = load ptr, ptr %5, align 8
  call void @llvm.memcpy.p0.p0.i64(ptr align 2 %7, ptr align 2 %4, i64 2, i1 false)
  %11 = load ptr, ptr %6, align 8
  call void @llvm.memcpy.p0.p0.i64(ptr align 2 %8, ptr align 2 %4, i64 2, i1 false)
  %12 = getelementptr inbounds %"class.Stockfish::Move", ptr %8, i32 0, i32 0
  %13 = load i16, ptr %12, align 2
  %14 = call noundef zeroext i1 @_ZNK9Stockfish8Position11gives_checkENS_4MoveE(ptr noundef nonnull align 8 dereferenceable(865) %10, i16 %13)
  %15 = getelementptr inbounds %"class.Stockfish::Move", ptr %7, i32 0, i32 0
  %16 = load i16, ptr %15, align 2
  call void @_ZN9Stockfish8Position7do_moveENS_4MoveERNS_9StateInfoEb(ptr noundef nonnull align 8 dereferenceable(865) %10, i16 %16, ptr noundef nonnull align 64 dereferenceable(11264) %11, i1 noundef zeroext %14)
  ret void
}

; Function Attrs: mustprogress nounwind uwtable
define linkonce_odr dso_local noundef zeroext i1 @_ZNK9Stockfish8Position7captureENS_4MoveE(ptr noundef nonnull align 8 dereferenceable(865) %0, i16 %1) #4 comdat align 2 {
  %3 = alloca %"class.Stockfish::Move", align 2
  %4 = alloca ptr, align 8
  %5 = getelementptr inbounds %"class.Stockfish::Move", ptr %3, i32 0, i32 0
  store i16 %1, ptr %5, align 2
  store ptr %0, ptr %4, align 8
  %6 = load ptr, ptr %4, align 8
  %7 = call noundef i32 @_ZNK9Stockfish4Move5to_sqEv(ptr noundef nonnull align 2 dereferenceable(2) %3)
  %8 = call noundef zeroext i1 @_ZNK9Stockfish8Position5emptyENS_6SquareE(ptr noundef nonnull align 8 dereferenceable(865) %6, i32 noundef %7)
  br i1 %8, label %12, label %9

9:                                                ; preds = %2
  %10 = call noundef i32 @_ZNK9Stockfish4Move7type_ofEv(ptr noundef nonnull align 2 dereferenceable(2) %3)
  %11 = icmp ne i32 %10, 49152
  br i1 %11, label %15, label %12

12:                                               ; preds = %9, %2
  %13 = call noundef i32 @_ZNK9Stockfish4Move7type_ofEv(ptr noundef nonnull align 2 dereferenceable(2) %3)
  %14 = icmp eq i32 %13, 32768
  br label %15

15:                                               ; preds = %12, %9
  %16 = phi i1 [ true, %9 ], [ %14, %12 ]
  ret i1 %16
}

; Function Attrs: mustprogress nounwind uwtable
define linkonce_odr dso_local noundef ptr @_ZNK9Stockfish8MoveListILNS_7GenTypeE5EE3endEv(ptr noundef nonnull align 8 dereferenceable(2056) %0) #4 comdat align 2 {
  %2 = alloca ptr, align 8
  store ptr %0, ptr %2, align 8
  %3 = load ptr, ptr %2, align 8
  %4 = getelementptr inbounds %"struct.Stockfish::MoveList", ptr %3, i32 0, i32 1
  %5 = load ptr, ptr %4, align 8
  ret ptr %5
}

; Function Attrs: mustprogress nounwind uwtable
define linkonce_odr dso_local noundef ptr @_ZNK9Stockfish8MoveListILNS_7GenTypeE5EE5beginEv(ptr noundef nonnull align 8 dereferenceable(2056) %0) #4 comdat align 2 {
  %2 = alloca ptr, align 8
  store ptr %0, ptr %2, align 8
  %3 = load ptr, ptr %2, align 8
  %4 = getelementptr inbounds %"struct.Stockfish::MoveList", ptr %3, i32 0, i32 0
  %5 = getelementptr inbounds [256 x %"struct.Stockfish::ExtMove"], ptr %4, i64 0, i64 0
  ret ptr %5
}

; Function Attrs: mustprogress nounwind uwtable
define linkonce_odr dso_local noundef i64 @_ZNK9Stockfish8MoveListILNS_7GenTypeE5EE4sizeEv(ptr noundef nonnull align 8 dereferenceable(2056) %0) #4 comdat align 2 {
  %2 = alloca ptr, align 8
  store ptr %0, ptr %2, align 8
  %3 = load ptr, ptr %2, align 8
  %4 = getelementptr inbounds %"struct.Stockfish::MoveList", ptr %3, i32 0, i32 1
  %5 = load ptr, ptr %4, align 8
  %6 = getelementptr inbounds %"struct.Stockfish::MoveList", ptr %3, i32 0, i32 0
  %7 = getelementptr inbounds [256 x %"struct.Stockfish::ExtMove"], ptr %6, i64 0, i64 0
  %8 = ptrtoint ptr %5 to i64
  %9 = ptrtoint ptr %7 to i64
  %10 = sub i64 %8, %9
  %11 = sdiv exact i64 %10, 8
  ret i64 %11
}

; Function Attrs: mustprogress nounwind uwtable
define linkonce_odr dso_local void @_ZN9Stockfish8MoveListILNS_7GenTypeE5EEC2ERKNS_8PositionE(ptr noundef nonnull align 8 dereferenceable(2056) %0, ptr noundef nonnull align 8 dereferenceable(865) %1) unnamed_addr #4 comdat align 2 {
  %3 = alloca ptr, align 8
  %4 = alloca ptr, align 8
  store ptr %0, ptr %3, align 8
  store ptr %1, ptr %4, align 8
  %5 = load ptr, ptr %3, align 8
  %6 = getelementptr inbounds %"struct.Stockfish::MoveList", ptr %5, i32 0, i32 1
  %7 = load ptr, ptr %4, align 8
  %8 = getelementptr inbounds %"struct.Stockfish::MoveList", ptr %5, i32 0, i32 0
  %9 = getelementptr inbounds [256 x %"struct.Stockfish::ExtMove"], ptr %8, i64 0, i64 0
  %10 = call noundef ptr @_ZN9Stockfish8generateILNS_7GenTypeE5EEEPNS_7ExtMoveERKNS_8PositionES3_(ptr noundef nonnull align 8 dereferenceable(865) %7, ptr noundef %9)
  store ptr %10, ptr %6, align 8
  ret void
}

; Function Attrs: mustprogress nounwind uwtable
define internal noundef i32 @_ZN9Stockfish12_GLOBAL__N_16searchILb0EEENS_10Tablebases8WDLScoreERNS_8PositionEPNS2_10ProbeStateE(ptr noundef nonnull align 8 dereferenceable(865) %0, ptr noundef %1) #4 {
  %3 = alloca i32, align 4
  %4 = alloca ptr, align 8
  %5 = alloca ptr, align 8
  %6 = alloca i32, align 4
  %7 = alloca i32, align 4
  %8 = alloca %"struct.Stockfish::StateInfo", align 64
  %9 = alloca %"struct.Stockfish::MoveList", align 8
  %10 = alloca i64, align 8
  %11 = alloca i64, align 8
  %12 = alloca ptr, align 8
  %13 = alloca ptr, align 8
  %14 = alloca ptr, align 8
  %15 = alloca %"class.Stockfish::Move", align 2
  %16 = alloca %"class.Stockfish::Move", align 2
  %17 = alloca %"class.Stockfish::Move", align 2
  %18 = alloca %"class.Stockfish::Move", align 2
  %19 = alloca i8, align 1
  store ptr %0, ptr %4, align 8
  store ptr %1, ptr %5, align 8
  store i32 -2, ptr %7, align 4
  %20 = load ptr, ptr %4, align 8
  call void @_ZN9Stockfish8MoveListILNS_7GenTypeE5EEC2ERKNS_8PositionE(ptr noundef nonnull align 8 dereferenceable(2056) %9, ptr noundef nonnull align 8 dereferenceable(865) %20)
  %21 = call noundef i64 @_ZNK9Stockfish8MoveListILNS_7GenTypeE5EE4sizeEv(ptr noundef nonnull align 8 dereferenceable(2056) %9)
  store i64 %21, ptr %10, align 8
  store i64 0, ptr %11, align 8
  store ptr %9, ptr %12, align 8
  %22 = load ptr, ptr %12, align 8
  %23 = call noundef ptr @_ZNK9Stockfish8MoveListILNS_7GenTypeE5EE5beginEv(ptr noundef nonnull align 8 dereferenceable(2056) %22)
  store ptr %23, ptr %13, align 8
  %24 = load ptr, ptr %12, align 8
  %25 = call noundef ptr @_ZNK9Stockfish8MoveListILNS_7GenTypeE5EE3endEv(ptr noundef nonnull align 8 dereferenceable(2056) %24)
  store ptr %25, ptr %14, align 8
  br label %26

26:                                               ; preds = %67, %2
  %27 = load ptr, ptr %13, align 8
  %28 = load ptr, ptr %14, align 8
  %29 = icmp ne ptr %27, %28
  br i1 %29, label %30, label %70

30:                                               ; preds = %26
  %31 = load ptr, ptr %13, align 8
  call void @llvm.memcpy.p0.p0.i64(ptr align 2 %15, ptr align 4 %31, i64 2, i1 false)
  %32 = load ptr, ptr %4, align 8
  call void @llvm.memcpy.p0.p0.i64(ptr align 2 %16, ptr align 2 %15, i64 2, i1 false)
  %33 = getelementptr inbounds %"class.Stockfish::Move", ptr %16, i32 0, i32 0
  %34 = load i16, ptr %33, align 2
  %35 = call noundef zeroext i1 @_ZNK9Stockfish8Position7captureENS_4MoveE(ptr noundef nonnull align 8 dereferenceable(865) %32, i16 %34)
  br i1 %35, label %37, label %36

36:                                               ; preds = %30
  br label %67

37:                                               ; preds = %30
  %38 = load i64, ptr %11, align 8
  %39 = add i64 %38, 1
  store i64 %39, ptr %11, align 8
  %40 = load ptr, ptr %4, align 8
  call void @llvm.memcpy.p0.p0.i64(ptr align 2 %17, ptr align 2 %15, i64 2, i1 false)
  %41 = getelementptr inbounds %"class.Stockfish::Move", ptr %17, i32 0, i32 0
  %42 = load i16, ptr %41, align 2
  call void @_ZN9Stockfish8Position7do_moveENS_4MoveERNS_9StateInfoE(ptr noundef nonnull align 8 dereferenceable(865) %40, i16 %42, ptr noundef nonnull align 64 dereferenceable(11264) %8)
  %43 = load ptr, ptr %4, align 8
  %44 = load ptr, ptr %5, align 8
  %45 = call noundef i32 @_ZN9Stockfish12_GLOBAL__N_16searchILb0EEENS_10Tablebases8WDLScoreERNS_8PositionEPNS2_10ProbeStateE(ptr noundef nonnull align 8 dereferenceable(865) %43, ptr noundef %44)
  %46 = call noundef i32 @_ZN9Stockfish12_GLOBAL__N_1ngENS_10Tablebases8WDLScoreE(i32 noundef %45)
  store i32 %46, ptr %6, align 4
  %47 = load ptr, ptr %4, align 8
  call void @llvm.memcpy.p0.p0.i64(ptr align 2 %18, ptr align 2 %15, i64 2, i1 false)
  %48 = getelementptr inbounds %"class.Stockfish::Move", ptr %18, i32 0, i32 0
  %49 = load i16, ptr %48, align 2
  call void @_ZN9Stockfish8Position9undo_moveENS_4MoveE(ptr noundef nonnull align 8 dereferenceable(865) %47, i16 %49)
  %50 = load ptr, ptr %5, align 8
  %51 = load i32, ptr %50, align 4
  %52 = icmp eq i32 %51, 0
  br i1 %52, label %53, label %54

53:                                               ; preds = %37
  store i32 0, ptr %3, align 4
  br label %111

54:                                               ; preds = %37
  %55 = load i32, ptr %6, align 4
  %56 = load i32, ptr %7, align 4
  %57 = icmp sgt i32 %55, %56
  br i1 %57, label %58, label %66

58:                                               ; preds = %54
  %59 = load i32, ptr %6, align 4
  store i32 %59, ptr %7, align 4
  %60 = load i32, ptr %6, align 4
  %61 = icmp sge i32 %60, 2
  br i1 %61, label %62, label %65

62:                                               ; preds = %58
  %63 = load ptr, ptr %5, align 8
  store i32 2, ptr %63, align 4
  %64 = load i32, ptr %6, align 4
  store i32 %64, ptr %3, align 4
  br label %111

65:                                               ; preds = %58
  br label %66

66:                                               ; preds = %65, %54
  br label %67

67:                                               ; preds = %66, %36
  %68 = load ptr, ptr %13, align 8
  %69 = getelementptr inbounds %"struct.Stockfish::ExtMove", ptr %68, i32 1
  store ptr %69, ptr %13, align 8
  br label %26

70:                                               ; preds = %26
  %71 = load i64, ptr %11, align 8
  %72 = icmp ne i64 %71, 0
  br i1 %72, label %73, label %77

73:                                               ; preds = %70
  %74 = load i64, ptr %11, align 8
  %75 = load i64, ptr %10, align 8
  %76 = icmp eq i64 %74, %75
  br label %77

77:                                               ; preds = %73, %70
  %78 = phi i1 [ false, %70 ], [ %76, %73 ]
  %79 = zext i1 %78 to i8
  store i8 %79, ptr %19, align 1
  %80 = load i8, ptr %19, align 1
  %81 = trunc i8 %80 to i1
  br i1 %81, label %82, label %84

82:                                               ; preds = %77
  %83 = load i32, ptr %7, align 4
  store i32 %83, ptr %6, align 4
  br label %93

84:                                               ; preds = %77
  %85 = load ptr, ptr %4, align 8
  %86 = load ptr, ptr %5, align 8
  %87 = call noundef i32 @_ZN9Stockfish12_GLOBAL__N_111probe_tableILNS0_6TBTypeE0ENS_10Tablebases8WDLScoreEEET0_RKNS_8PositionEPNS3_10ProbeStateES4_(ptr noundef nonnull align 8 dereferenceable(865) %85, ptr noundef %86, i32 noundef 0)
  store i32 %87, ptr %6, align 4
  %88 = load ptr, ptr %5, align 8
  %89 = load i32, ptr %88, align 4
  %90 = icmp eq i32 %89, 0
  br i1 %90, label %91, label %92

91:                                               ; preds = %84
  store i32 0, ptr %3, align 4
  br label %111

92:                                               ; preds = %84
  br label %93

93:                                               ; preds = %92, %82
  %94 = load i32, ptr %7, align 4
  %95 = load i32, ptr %6, align 4
  %96 = icmp sge i32 %94, %95
  br i1 %96, label %97, label %108

97:                                               ; preds = %93
  %98 = load i32, ptr %7, align 4
  %99 = icmp sgt i32 %98, 0
  br i1 %99, label %103, label %100

100:                                              ; preds = %97
  %101 = load i8, ptr %19, align 1
  %102 = trunc i8 %101 to i1
  br label %103

103:                                              ; preds = %100, %97
  %104 = phi i1 [ true, %97 ], [ %102, %100 ]
  %105 = select i1 %104, i32 2, i32 1
  %106 = load ptr, ptr %5, align 8
  store i32 %105, ptr %106, align 4
  %107 = load i32, ptr %7, align 4
  store i32 %107, ptr %3, align 4
  br label %111

108:                                              ; preds = %93
  %109 = load ptr, ptr %5, align 8
  store i32 1, ptr %109, align 4
  %110 = load i32, ptr %6, align 4
  store i32 %110, ptr %3, align 4
  br label %111

111:                                              ; preds = %108, %103, %91, %62, %53
  %112 = load i32, ptr %3, align 4
  ret i32 %112
}