; Function Attrs: mustprogress nounwind uwtable
define internal fastcc noundef i32 @_ZN9Stockfish12_GLOBAL__N_16searchILb0EEENS_10Tablebases8WDLScoreERNS_8PositionEPNS2_10ProbeStateE(ptr noundef nonnull align 8 dereferenceable(865) %0, ptr nocapture noundef %1) unnamed_addr #3 {
  %3 = alloca %"struct.Stockfish::StateInfo", align 64
  %4 = alloca %"struct.Stockfish::MoveList", align 8
  %5 = getelementptr inbounds i8, ptr %4, i64 2048
  %6 = call noundef ptr @_ZN9Stockfish8generateILNS_7GenTypeE5EEEPNS_7ExtMoveERKNS_8PositionES3_(ptr noundef nonnull align 8 dereferenceable(865) %0, ptr noundef nonnull %4) #24
  store ptr %6, ptr %5, align 8
  %7 = ptrtoint ptr %6 to i64
  %8 = ptrtoint ptr %4 to i64
  %9 = sub i64 %7, %8
  %10 = ashr exact i64 %9, 3
  %.not55 = icmp eq ptr %4, %6
  br i1 %.not55, label %._crit_edge.thread, label %.lr.ph

.lr.ph:                                           ; preds = %2, %28
  %.04258 = phi i32 [ %.1, %28 ], [ -2, %2 ]
  %.04357 = phi i64 [ %.144, %28 ], [ 0, %2 ]
  %.04556 = phi ptr [ %29, %28 ], [ %4, %2 ]
  %.sroa.04.0.copyload = load i16, ptr %.04556, align 4
  %11 = and i16 %.sroa.04.0.copyload, 63
  %12 = zext nneg i16 %11 to i64
  %13 = getelementptr inbounds [64 x i32], ptr %0, i64 0, i64 %12
  %14 = load i32, ptr %13, align 4
  %15 = icmp ne i32 %14, 0
  %.not.i = icmp ult i16 %.sroa.04.0.copyload, -16384
  %or.cond.i.not50 = and i1 %.not.i, %15
  %16 = and i16 %.sroa.04.0.copyload, -16384
  %17 = icmp eq i16 %16, -32768
  %or.cond = or i1 %17, %or.cond.i.not50
  br i1 %or.cond, label %_ZNK9Stockfish8Position7captureENS_4MoveE.exit.thread, label %28

_ZNK9Stockfish8Position7captureENS_4MoveE.exit.thread: ; preds = %.lr.ph
  %18 = add i64 %.04357, 1
  %19 = call noundef zeroext i1 @_ZNK9Stockfish8Position11gives_checkENS_4MoveE(ptr noundef nonnull align 8 dereferenceable(865) %0, i16 %.sroa.04.0.copyload) #24
  call void @_ZN9Stockfish8Position7do_moveENS_4MoveERNS_9StateInfoEb(ptr noundef nonnull align 8 dereferenceable(865) %0, i16 %.sroa.04.0.copyload, ptr noundef nonnull align 64 dereferenceable(11264) %3, i1 noundef zeroext %19) #24
  %20 = call fastcc noundef i32 @_ZN9Stockfish12_GLOBAL__N_16searchILb0EEENS_10Tablebases8WDLScoreERNS_8PositionEPNS2_10ProbeStateE(ptr noundef nonnull align 8 dereferenceable(865) %0, ptr noundef %1), !range !70
  %21 = sub nsw i32 0, %20
  call void @_ZN9Stockfish8Position9undo_moveENS_4MoveE(ptr noundef nonnull align 8 dereferenceable(865) %0, i16 %.sroa.04.0.copyload) #24
  %22 = load i32, ptr %1, align 4
  %23 = icmp eq i32 %22, 0
  br i1 %23, label %.loopexit, label %24

24:                                               ; preds = %_ZNK9Stockfish8Position7captureENS_4MoveE.exit.thread
  %25 = icmp slt i32 %.04258, %21
  br i1 %25, label %26, label %28

26:                                               ; preds = %24
  %27 = icmp slt i32 %20, -1
  br i1 %27, label %.loopexit.sink.split, label %28

28:                                               ; preds = %.lr.ph, %24, %26
  %.144 = phi i64 [ %18, %26 ], [ %18, %24 ], [ %.04357, %.lr.ph ]
  %.1 = phi i32 [ %21, %26 ], [ %.04258, %24 ], [ %.04258, %.lr.ph ]
  %29 = getelementptr inbounds i8, ptr %.04556, i64 8
  %.not = icmp eq ptr %29, %6
  br i1 %.not, label %._crit_edge, label %.lr.ph

._crit_edge:                                      ; preds = %28
  %30 = icmp ne i64 %.144, 0
  %31 = icmp eq i64 %.144, %10
  %32 = and i1 %30, %31
  br i1 %32, label %.thread, label %._crit_edge.thread

._crit_edge.thread:                               ; preds = %2, %._crit_edge
  %.042.lcssa62 = phi i32 [ %.1, %._crit_edge ], [ -2, %2 ]
  %33 = call fastcc noundef i32 @_ZN9Stockfish12_GLOBAL__N_111probe_tableILNS0_6TBTypeE0ENS_10Tablebases8WDLScoreEEET0_RKNS_8PositionEPNS3_10ProbeStateES4_(ptr noundef nonnull align 8 dereferenceable(865) %0, ptr noundef %1)
  %34 = load i32, ptr %1, align 4
  %35 = icmp eq i32 %34, 0
  br i1 %35, label %.loopexit, label %36

36:                                               ; preds = %._crit_edge.thread
  %.not47 = icmp slt i32 %.042.lcssa62, %33
  br i1 %.not47, label %.loopexit.sink.split, label %.thread

.thread:                                          ; preds = %._crit_edge, %36
  %.042.lcssa6367 = phi i32 [ %.042.lcssa62, %36 ], [ %.1, %._crit_edge ]
  %37 = phi i1 [ false, %36 ], [ true, %._crit_edge ]
  %38 = icmp sgt i32 %.042.lcssa6367, 0
  %39 = or i1 %38, %37
  %40 = select i1 %39, i32 2, i32 1
  br label %.loopexit.sink.split

.loopexit.sink.split:                             ; preds = %26, %36, %.thread
  %.sink = phi i32 [ %40, %.thread ], [ 1, %36 ], [ 2, %26 ]
  %.0.ph = phi i32 [ %.042.lcssa6367, %.thread ], [ %33, %36 ], [ 2, %26 ]
  store i32 %.sink, ptr %1, align 4
  br label %.loopexit

.loopexit:                                        ; preds = %_ZNK9Stockfish8Position7captureENS_4MoveE.exit.thread, %.loopexit.sink.split, %._crit_edge.thread
  %.0 = phi i32 [ 0, %._crit_edge.thread ], [ %.0.ph, %.loopexit.sink.split ], [ 0, %_ZNK9Stockfish8Position7captureENS_4MoveE.exit.thread ]
  ret i32 %.0
}